Certificate:
    Data:
        Version: 3 (0x2)
        Serial Number:
            26:4d:e9:3a:89:ca:89:e8:ad:dc:14:3d:e6:ce:4b:ba:a7:4b:8c:bc
        Signature Algorithm: sha256WithRSAEncryption
        Issuer: C=PA, O=TrustCor Systems S. de R.L., CN=Dev TrustCor RootCert CA-2
        Validity
            Not Before: Jul 15 12:55:04 2020 GMT
            Not After : Jul 13 12:55:04 2030 GMT
        Subject: C=PA, O=TrustCor Systems S. de R.L., CN=Dev TrustCor RootCert CA-2
        Subject Public Key Info:
            Public Key Algorithm: rsaEncryption
                RSA Public-Key: (2048 bit)
                Modulus:
                    00:bd:b9:6a:06:f7:5e:9d:bd:82:19:ed:a3:86:cd:
                    75:25:96:43:9b:ab:a8:35:29:c6:80:82:f4:b7:39:
                    93:1b:61:40:da:ea:73:db:a3:fa:54:30:67:58:f5:
                    fc:93:5c:fe:6c:65:55:ec:c1:da:15:9c:2d:70:d4:
                    aa:48:93:db:3e:cd:f6:68:67:01:72:96:98:82:93:
                    e2:99:99:51:9d:69:72:19:5b:07:d5:2b:18:8a:93:
                    4e:72:8e:c9:d7:ff:d9:37:8f:e6:bd:93:65:07:ca:
                    81:1b:42:d0:72:74:ef:d0:6e:f4:f4:88:55:39:b5:
                    80:15:7e:63:4a:a7:db:3b:b6:3f:9f:7e:b6:4e:f7:
                    13:a4:7b:3d:9c:6a:59:3a:95:75:3b:6e:30:48:57:
                    bc:72:01:de:99:07:f8:67:0c:f1:9a:99:01:58:40:
                    bc:05:56:d5:66:26:b6:8c:ce:09:38:e3:f6:19:a2:
                    06:ec:c5:ab:76:60:8b:06:7a:b8:c4:81:93:5c:ea:
                    12:13:76:97:95:88:54:62:cc:0d:c7:8f:6e:ef:6a:
                    db:04:70:42:5a:79:e4:05:8f:14:ff:64:ee:fb:67:
                    4e:01:4a:e0:26:dd:a1:55:3c:6b:06:3f:4a:b9:6b:
                    f2:7d:1a:28:06:c2:4d:bf:80:fb:82:e3:80:07:24:
                    2b:d5
                Exponent: 65537 (0x10001)
        X509v3 extensions:
            X509v3 Subject Key Identifier: 
                9F:57:D8:28:62:04:F8:B8:FB:02:1B:84:E4:A6:D5:CB:C1:FF:2F:6A
            X509v3 Basic Constraints: critical
                CA:TRUE
            X509v3 Key Usage: 
                Digital Signature, Certificate Sign, CRL Sign
    Signature Algorithm: sha256WithRSAEncryption
         0d:93:48:f6:fa:11:21:06:72:2d:a6:1c:45:f1:90:21:24:c0:
         7a:39:df:68:60:5c:1f:ac:77:8b:c6:1a:a5:24:c7:f0:14:ab:
         9f:8d:7e:63:a5:49:c6:be:0e:04:8f:87:17:79:44:39:02:4d:
         4a:b6:7b:d1:f6:a8:6d:d8:23:04:b4:4b:47:0f:9b:1e:bd:21:
         e1:9d:fa:e6:32:e7:86:b4:ec:28:6d:b9:b8:40:8d:15:5d:2b:
         10:ce:45:47:eb:53:7e:43:9e:9f:eb:fc:90:b1:ca:9b:73:bb:
         fc:69:50:7b:85:1c:d0:b4:f0:30:88:e7:0f:47:22:b6:51:3e:
         1d:2e:03:41:00:02:25:d4:41:83:c4:10:b4:d5:bd:20:4c:bb:
         77:08:64:05:19:80:69:0d:bc:91:4f:06:5b:15:a5:5f:e2:29:
         e5:78:40:ed:91:b7:79:df:46:a6:7c:2b:85:20:39:31:09:44:
         3a:e2:52:5d:22:31:ba:be:64:0e:0e:cc:9f:83:7b:c1:3d:44:
         ca:75:7a:f5:7c:71:17:dc:1b:f9:d9:ed:3f:73:02:02:8e:0c:
         be:2c:8b:98:9a:6a:56:c2:af:e3:dd:bf:40:d6:5c:f4:fe:53:
         b2:3b:70:c2:69:00:f2:27:4c:f4:a6:8d:c0:06:6e:6c:72:d5:
         1b:ae:dd:40
-----BEGIN CERTIFICATE-----
MIIDfTCCAmWgAwIBAgIUJk3pOonKieit3BQ95s5LuqdLjLwwDQYJKoZIhvcNAQEL
BQAwWDELMAkGA1UEBhMCUEExJDAiBgNVBAoMG1RydXN0Q29yIFN5c3RlbXMgUy4g
ZGUgUi5MLjEjMCEGA1UEAwwaRGV2IFRydXN0Q29yIFJvb3RDZXJ0IENBLTIwHhcN
MjAwNzE1MTI1NTA0WhcNMzAwNzEzMTI1NTA0WjBYMQswCQYDVQQGEwJQQTEkMCIG
A1UECgwbVHJ1c3RDb3IgU3lzdGVtcyBTLiBkZSBSLkwuMSMwIQYDVQQDDBpEZXYg
VHJ1c3RDb3IgUm9vdENlcnQgQ0EtMjCCASIwDQYJKoZIhvcNAQEBBQADggEPADCC
AQoCggEBAL25agb3Xp29ghnto4bNdSWWQ5urqDUpxoCC9Lc5kxthQNrqc9uj+lQw
Z1j1/JNc/mxlVezB2hWcLXDUqkiT2z7N9mhnAXKWmIKT4pmZUZ1pchlbB9UrGIqT
TnKOydf/2TeP5r2TZQfKgRtC0HJ079Bu9PSIVTm1gBV+Y0qn2zu2P59+tk73E6R7
PZxqWTqVdTtuMEhXvHIB3pkH+GcM8ZqZAVhAvAVW1WYmtozOCTjj9hmiBuzFq3Zg
iwZ6uMSBk1zqEhN2l5WIVGLMDcePbu9q2wRwQlp55AWPFP9k7vtnTgFK4CbdoVU8
awY/Srlr8n0aKAbCTb+A+4LjgAckK9UCAwEAAaM/MD0wHQYDVR0OBBYEFJ9X2Chi
BPi4+wIbhOSm1cvB/y9qMA8GA1UdEwEB/wQFMAMBAf8wCwYDVR0PBAQDAgGGMA0G
CSqGSIb3DQEBCwUAA4IBAQANk0j2+hEhBnItphxF8ZAhJMB6Od9oYFwfrHeLxhql
JMfwFKufjX5jpUnGvg4Ej4cXeUQ5Ak1KtnvR9qht2CMEtEtHD5sevSHhnfrmMueG
tOwobbm4QI0VXSsQzkVH61N+Q56f6/yQscqbc7v8aVB7hRzQtPAwiOcPRyK2UT4d
LgNBAAIl1EGDxBC01b0gTLt3CGQFGYBpDbyRTwZbFaVf4inleEDtkbd530amfCuF
IDkxCUQ64lJdIjG6vmQODsyfg3vBPUTKdXr1fHEX3Bv52e0/cwICjgy+LIuYmmpW
wq/j3b9A1lz0/lOyO3DCaQDyJ0z0po3ABm5sctUbrt1A
-----END CERTIFICATE-----
